; Function Attrs: mustprogress uwtable
define void @_ZN2cv4gapi4s11n29vector_of_strings_deserializeB5cxx11ERNS1_8IIStreamE(ptr dead_on_unwind noalias nonnull writable sret(%"class.std::vector.181") align 8 initializes((0, 24)) %0, ptr noundef nonnull align 8 dereferenceable(8) %1) local_unnamed_addr #3 personality ptr @__gxx_personality_v0 {
  tail call void @llvm.memset.p0.i64(ptr noundef nonnull align 8 dereferenceable(24) %0, i8 0, i64 24, i1 false)
  %3 = invoke noundef nonnull align 8 dereferenceable(8) ptr @_ZN2cv4gapi4s11nrsINSt7__cxx1112basic_stringIcSt11char_traitsIcESaIcEEEEERNS1_8IIStreamESA_RSt6vectorIT_SaISC_EE(ptr noundef nonnull align 8 dereferenceable(8) %1, ptr noundef nonnull align 8 dereferenceable(24) %0)
          to label %6 unwind label %4

4:                                                ; preds = %2
  %5 = landingpad { ptr, i32 }
          cleanup
  tail call void @_ZNSt6vectorINSt7__cxx1112basic_stringIcSt11char_traitsIcESaIcEEESaIS5_EED2Ev(ptr noundef nonnull align 8 dereferenceable(24) %0) #31
  resume { ptr, i32 } %5

6:                                                ; preds = %2
  ret void
}